; Function Attrs: nounwind uwtable
define internal void @lkcbfunc(i32 noundef %0, ptr noundef %1) #0 {
  switch i32 %0, label %3 [
    i32 -2, label %5
    i32 0, label %5
  ]

3:                                                ; preds = %2
  %4 = tail call ptr @PMIx_Error_string(i32 noundef %0) #12
  tail call void (i32, ptr, ...) @pmix_output(i32 noundef 0, ptr noundef nonnull @.str.6, ptr noundef %4, ptr noundef nonnull @.str.5, i32 noundef 55) #12
  br label %5

5:                                                ; preds = %2, %2, %3
  %6 = tail call i32 @pthread_mutex_lock(ptr noundef %1) #12
  %7 = icmp eq i32 %6, 35
  br i1 %7, label %8, label %pmix_obj_update.exit

8:                                                ; preds = %5
  %9 = tail call ptr @__errno_location() #13
  store i32 35, ptr %9, align 4, !tbaa !19
  tail call void @perror(ptr noundef nonnull @.str.11) #15
  tail call void @abort() #16
  unreachable

pmix_obj_update.exit:                             ; preds = %5
  %10 = getelementptr inbounds nuw i8, ptr %1, i64 48
  %11 = load i32, ptr %10, align 8, !tbaa !39
  %12 = add nsw i32 %11, -1
  store i32 %12, ptr %10, align 8, !tbaa !39
  %13 = tail call i32 @pthread_mutex_unlock(ptr noundef %1) #12
  %14 = icmp eq i32 %12, 0
  br i1 %14, label %15, label %29

15:                                               ; preds = %pmix_obj_update.exit
  %16 = getelementptr inbounds nuw i8, ptr %1, i64 40
  %17 = load ptr, ptr %16, align 8, !tbaa !38
  %18 = getelementptr inbounds nuw i8, ptr %17, i64 48
  %19 = load ptr, ptr %18, align 8, !tbaa !49
  %20 = load ptr, ptr %19, align 8, !tbaa !41
  %.not6.i = icmp eq ptr %20, null
  br i1 %.not6.i, label %pmix_obj_run_destructors.exit, label %.lr.ph.i

.lr.ph.i:                                         ; preds = %15, %.lr.ph.i
  %21 = phi ptr [ %23, %.lr.ph.i ], [ %20, %15 ]
  %.07.i = phi ptr [ %22, %.lr.ph.i ], [ %19, %15 ]
  tail call void %21(ptr noundef %1) #12
  %22 = getelementptr inbounds nuw i8, ptr %.07.i, i64 8
  %23 = load ptr, ptr %22, align 8, !tbaa !41
  %.not.i = icmp eq ptr %23, null
  br i1 %.not.i, label %pmix_obj_run_destructors.exit, label %.lr.ph.i, !llvm.loop !50

pmix_obj_run_destructors.exit:                    ; preds = %.lr.ph.i, %15
  %24 = getelementptr inbounds nuw i8, ptr %1, i64 96
  %25 = load ptr, ptr %24, align 8, !tbaa !51
  %.not = icmp eq ptr %25, null
  br i1 %.not, label %28, label %26

26:                                               ; preds = %pmix_obj_run_destructors.exit
  %27 = getelementptr inbounds nuw i8, ptr %1, i64 56
  tail call void %25(ptr noundef nonnull %27, ptr noundef nonnull %1) #12
  br label %29

28:                                               ; preds = %pmix_obj_run_destructors.exit
  tail call void @free(ptr noundef nonnull %1) #12
  br label %29

29:                                               ; preds = %26, %28, %pmix_obj_update.exit
  ret void
}